target datalayout = "e-m:e-p270:32:32-p271:32:32-p272:64:64-i64:64-i128:128-f80:128-n8:16:32:64-S128"
target triple = "x86_64-pc-linux-gnu"

%"class.std::__cxx11::basic_string" = type { %"struct.std::__cxx11::basic_string<char>::_Alloc_hider", i64, %union.anon }
%"struct.std::__cxx11::basic_string<char>::_Alloc_hider" = type { ptr }
%union.anon = type { i64, [8 x i8] }
%"class.testing::internal::MutexBase" = type { %union.pthread_mutex_t, i8, i64 }
%union.pthread_mutex_t = type { %struct.__pthread_mutex_s }
%struct.__pthread_mutex_s = type { i32, i32, i32, i32, i32, i16, i16, %struct.__pthread_internal_list }
%struct.__pthread_internal_list = type { ptr, ptr }
%"class.testing::UnitTest" = type { ptr, %"class.testing::internal::Mutex", ptr }
%"class.testing::internal::Mutex" = type { %"class.testing::internal::MutexBase" }
%"class.testing::TestProperty" = type { %"class.std::__cxx11::basic_string", %"class.std::__cxx11::basic_string" }

; Function Attrs: mustprogress uwtable
define void @_ZN7testing8UnitTest14RecordPropertyERKNSt7__cxx1112basic_stringIcSt11char_traitsIcESaIcEEES8_(ptr noundef nonnull align 8 dereferenceable(72) %0, ptr noundef nonnull align 8 dereferenceable(32) %1, ptr noundef nonnull align 8 dereferenceable(32) %2) #6 align 2 personality ptr @__gxx_personality_v0 {
  %4 = alloca ptr, align 8
  %5 = alloca ptr, align 8
  %6 = alloca ptr, align 8
  %7 = alloca %"class.testing::TestProperty", align 8
  %8 = alloca ptr, align 8
  %9 = alloca i32, align 4
  store ptr %0, ptr %4, align 8, !tbaa !55
  store ptr %1, ptr %5, align 8, !tbaa !21
  store ptr %2, ptr %6, align 8, !tbaa !21
  %10 = load ptr, ptr %4, align 8
  %11 = getelementptr inbounds nuw %"class.testing::UnitTest", ptr %10, i32 0, i32 2
  %12 = load ptr, ptr %11, align 8, !tbaa !57
  call void @llvm.lifetime.start.p0(i64 64, ptr %7) #3
  %13 = load ptr, ptr %5, align 8, !tbaa !21
  %14 = load ptr, ptr %6, align 8, !tbaa !21
  call void @_ZN7testing12TestPropertyC2ERKNSt7__cxx1112basic_stringIcSt11char_traitsIcESaIcEEES8_(ptr noundef nonnull align 8 dereferenceable(64) %7, ptr noundef nonnull align 8 dereferenceable(32) %13, ptr noundef nonnull align 8 dereferenceable(32) %14)
  invoke void @_ZN7testing8internal12UnitTestImpl14RecordPropertyERKNS_12TestPropertyE(ptr noundef nonnull align 8 dereferenceable(497) %12, ptr noundef nonnull align 8 dereferenceable(64) %7)
          to label %15 unwind label %16

15:                                               ; preds = %3
  call void @_ZN7testing12TestPropertyD2Ev(ptr noundef nonnull align 8 dereferenceable(64) %7) #3
  call void @llvm.lifetime.end.p0(i64 64, ptr %7) #3
  ret void

16:                                               ; preds = %3
  %17 = landingpad { ptr, i32 }
          cleanup
  %18 = extractvalue { ptr, i32 } %17, 0
  store ptr %18, ptr %8, align 8
  %19 = extractvalue { ptr, i32 } %17, 1
  store i32 %19, ptr %9, align 4
  call void @_ZN7testing12TestPropertyD2Ev(ptr noundef nonnull align 8 dereferenceable(64) %7) #3
  call void @llvm.lifetime.end.p0(i64 64, ptr %7) #3
  br label %20

20:                                               ; preds = %16
  %21 = load ptr, ptr %8, align 8
  %22 = load i32, ptr %9, align 4
  %23 = insertvalue { ptr, i32 } poison, ptr %21, 0
  %24 = insertvalue { ptr, i32 } %23, i32 %22, 1
  resume { ptr, i32 } %24
}